target datalayout = "e-m:e-p270:32:32-p271:32:32-p272:64:64-i64:64-i128:128-f80:128-n8:16:32:64-S128"
target triple = "x86_64-pc-linux-gnu"

%"class.crypto::(anonymous namespace)::SecureHashSHA256" = type { %"class.crypto::SecureHash", %struct.sha256_state_st }
%"class.crypto::SecureHash" = type { ptr }
%struct.sha256_state_st = type { [8 x i32], i32, i32, [64 x i8], i32, i32 }

; Function Attrs: mustprogress nounwind uwtable
define linkonce_odr void @_ZN6crypto10SecureHashD2Ev(ptr noundef nonnull align 8 dereferenceable(8) %0) unnamed_addr #2 comdat align 2 {
  %2 = alloca ptr, align 8
  store ptr %0, ptr %2, align 8, !tbaa !73
  ret void
}

; Function Attrs: mustprogress nounwind uwtable
define internal void @_ZN6crypto12_GLOBAL__N_116SecureHashSHA256D2Ev(ptr noundef nonnull align 8 dereferenceable(120) %0) unnamed_addr #2 align 2 personality ptr @__gxx_personality_v0 {
  %2 = alloca ptr, align 8
  store ptr %0, ptr %2, align 8, !tbaa !14
  %3 = load ptr, ptr %2, align 8
  store ptr getelementptr inbounds inrange(-16, 48) ({ [8 x ptr] }, ptr @_ZTVN6crypto12_GLOBAL__N_116SecureHashSHA256E, i32 0, i32 0, i32 2), ptr %3, align 8, !tbaa !22
  %4 = getelementptr inbounds nuw %"class.crypto::(anonymous namespace)::SecureHashSHA256", ptr %3, i32 0, i32 1
  invoke void @OPENSSL_cleanse(ptr noundef %4, i64 noundef 112)
          to label %5 unwind label %6

5:                                                ; preds = %1
  call void @_ZN6crypto10SecureHashD2Ev(ptr noundef nonnull align 8 dereferenceable(8) %3) #13
  ret void

6:                                                ; preds = %1
  %7 = landingpad { ptr, i32 }
          catch ptr null
  %8 = extractvalue { ptr, i32 } %7, 0
  call void @__clang_call_terminate(ptr %8) #16
  unreachable
}

; Function Attrs: mustprogress nounwind uwtable
define internal void @_ZN6crypto12_GLOBAL__N_116SecureHashSHA256D0Ev(ptr noundef nonnull align 8 dereferenceable(120) %0) unnamed_addr #2 align 2 {
  %2 = alloca ptr, align 8
  store ptr %0, ptr %2, align 8, !tbaa !14
  %3 = load ptr, ptr %2, align 8
  call void @_ZN6crypto12_GLOBAL__N_116SecureHashSHA256D2Ev(ptr noundef nonnull align 8 dereferenceable(120) %3) #13
  call void @_ZdlPv(ptr noundef %3) #15
  ret void
}