; Function Attrs: mustprogress nounwind uwtable
define internal void @_ZN6crypto12_GLOBAL__N_116SecureHashSHA256D0Ev(ptr noundef nonnull align 8 dereferenceable(120) initializes((0, 8)) %0) unnamed_addr #8 align 2 personality ptr @__gxx_personality_v0 {
  store ptr getelementptr inbounds nuw inrange(-16, 48) (i8, ptr @_ZTVN6crypto12_GLOBAL__N_116SecureHashSHA256E, i64 16), ptr %0, align 8, !tbaa !6
  %2 = getelementptr inbounds nuw i8, ptr %0, i64 8
  invoke void @OPENSSL_cleanse(ptr noundef nonnull %2, i64 noundef 112)
          to label %_ZN6crypto12_GLOBAL__N_116SecureHashSHA256D2Ev.exit unwind label %3

3:                                                ; preds = %1
  %4 = landingpad { ptr, i32 }
          catch ptr null
  %5 = extractvalue { ptr, i32 } %4, 0
  tail call void @__clang_call_terminate(ptr %5) #14
  unreachable

_ZN6crypto12_GLOBAL__N_116SecureHashSHA256D2Ev.exit: ; preds = %1
  tail call void @_ZdlPv(ptr noundef nonnull %0) #12
  ret void
}